Certificate:
    Data:
        Version: 3 (0x2)
        Serial Number: 4096 (0x1000)
    Signature Algorithm: sha256WithRSAEncryption
        Issuer: C=US, O=chen.com, CN=rhevm.chen.com.17762
        Validity
            Not Before: Oct 26 01:05:11 2017 GMT
            Not After : Oct 25 01:05:11 2027 GMT
        Subject: C=US, O=chen.com, CN=rhevm.chen.com.17762
        Subject Public Key Info:
            Public Key Algorithm: rsaEncryption
                Public-Key: (2048 bit)
                Modulus:
                    00:bd:82:62:9f:45:34:0d:91:7c:eb:c7:be:76:a3:
                    e7:58:36:db:39:40:59:20:8a:55:42:b4:38:71:8b:
                    b6:bf:6c:65:89:c1:8e:2a:48:1e:fd:bb:7c:00:39:
                    ce:b4:bf:53:f5:a3:51:c1:55:d7:99:03:21:49:d1:
                    bd:5b:07:79:aa:9f:2f:d2:ec:43:6e:1e:57:f1:9b:
                    08:54:ab:f5:d4:6d:19:a3:e0:d8:ce:86:8e:37:67:
                    b7:2f:96:22:7b:b1:b5:14:34:7e:30:f8:db:52:f9:
                    1f:73:32:af:cb:27:24:6b:f5:d6:74:2f:dc:88:cc:
                    93:fb:49:97:bf:df:e6:45:88:a0:cd:80:61:01:87:
                    16:75:6d:7a:9a:43:16:5a:fe:36:28:95:61:77:73:
                    51:ec:fc:75:62:5b:93:50:e4:d3:d7:95:55:93:f8:
                    bb:4f:bb:6b:f1:58:3c:69:1b:01:33:98:ad:f1:96:
                    79:36:ec:6d:ca:ec:dc:49:89:fd:56:0b:40:96:45:
                    9a:ad:10:f7:d8:80:4c:62:94:2c:b1:eb:fd:62:34:
                    4f:cd:0a:e7:a9:25:c5:c8:0b:fe:cf:ee:2f:47:90:
                    10:96:ff:3c:61:86:8f:80:d8:43:66:a2:e3:a9:30:
                    ed:2f:21:1c:f5:da:24:5c:16:5c:2a:4a:d9:15:63:
                    15:65
                Exponent: 65537 (0x10001)
        X509v3 extensions:
            X509v3 Subject Key Identifier: 
                CA:DB:0C:8E:CF:67:7D:17:6F:07:BE:AB:BA:B5:FA:BE:D4:CA:34:5C
            X509v3 Authority Key Identifier: 
                keyid:CA:DB:0C:8E:CF:67:7D:17:6F:07:BE:AB:BA:B5:FA:BE:D4:CA:34:5C
                DirName:/C=US/O=chen.com/CN=rhevm.chen.com.17762
                serial:10:00

            X509v3 Basic Constraints: critical
                CA:TRUE
            X509v3 Key Usage: critical
                Certificate Sign, CRL Sign
    Signature Algorithm: sha256WithRSAEncryption
         bb:9a:3e:11:dc:df:94:8c:b1:88:0b:9a:64:eb:9f:dd:85:47:
         d4:87:72:34:fb:a2:25:41:a0:5d:52:96:75:06:03:39:6f:56:
         56:dd:6e:c6:4a:3d:f1:92:c5:61:8d:0f:d9:47:44:1b:24:b2:
         87:00:0b:c5:61:4d:ee:4f:89:ab:ec:f9:b3:c2:c3:8a:b4:4d:
         dd:2b:d2:8b:52:73:02:e8:33:cc:ff:72:0e:67:56:a4:2d:d4:
         57:18:85:8b:d2:a1:1a:b6:53:f5:0c:32:ac:2a:08:a9:fd:14:
         44:b4:d1:ca:b7:b3:9e:71:61:1d:41:70:89:f7:f6:74:c7:d2:
         0a:d7:e5:fb:8c:ec:cd:ea:a3:98:5d:00:68:79:93:be:5e:47:
         42:4a:08:84:ba:df:2d:27:d4:9d:a4:b2:99:4e:8c:cb:09:01:
         4e:e3:8f:70:89:93:66:fc:7b:3f:7d:c3:69:20:e9:91:00:51:
         f5:eb:91:2c:ab:42:dd:05:45:5f:13:fc:73:c4:7b:03:28:78:
         49:2d:b9:46:e8:66:ab:d1:6f:aa:b4:5d:57:e8:dc:6e:b4:b9:
         95:b0:d3:ff:34:62:c4:0f:88:25:d4:b5:da:fd:5b:70:90:58:
         4a:fe:dd:a0:c1:3b:f7:0c:a7:de:e6:ac:82:6b:d0:ea:04:79:
         f8:69:e4:7d
-----BEGIN CERTIFICATE-----
MIIDqDCCApCgAwIBAgICEAAwDQYJKoZIhvcNAQELBQAwPzELMAkGA1UEBhMCVVMx
ETAPBgNVBAoMCGNoZW4uY29tMR0wGwYDVQQDDBRyaGV2bS5jaGVuLmNvbS4xNzc2
MjAeFw0xNzEwMjYwMTA1MTFaFw0yNzEwMjUwMTA1MTFaMD8xCzAJBgNVBAYTAlVT
MREwDwYDVQQKDAhjaGVuLmNvbTEdMBsGA1UEAwwUcmhldm0uY2hlbi5jb20uMTc3
NjIwggEiMA0GCSqGSIb3DQEBAQUAA4IBDwAwggEKAoIBAQC9gmKfRTQNkXzrx752
o+dYNts5QFkgilVCtDhxi7a/bGWJwY4qSB79u3wAOc60v1P1o1HBVdeZAyFJ0b1b
B3mqny/S7ENuHlfxmwhUq/XUbRmj4NjOho43Z7cvliJ7sbUUNH4w+NtS+R9zMq/L
JyRr9dZ0L9yIzJP7SZe/3+ZFiKDNgGEBhxZ1bXqaQxZa/jYolWF3c1Hs/HViW5NQ
5NPXlVWT+LtPu2vxWDxpGwEzmK3xlnk27G3K7NxJif1WC0CWRZqtEPfYgExilCyx
6/1iNE/NCuepJcXIC/7P7i9HkBCW/zxhho+A2ENmouOpMO0vIRz12iRcFlwqStkV
YxVlAgMBAAGjga0wgaowHQYDVR0OBBYEFMrbDI7PZ30Xbwe+q7q1+r7UyjRcMGgG
A1UdIwRhMF+AFMrbDI7PZ30Xbwe+q7q1+r7UyjRcoUOkQTA/MQswCQYDVQQGEwJV
UzERMA8GA1UECgwIY2hlbi5jb20xHTAbBgNVBAMMFHJoZXZtLmNoZW4uY29tLjE3
NzYyggIQADAPBgNVHRMBAf8EBTADAQH/MA4GA1UdDwEB/wQEAwIBBjANBgkqhkiG
9w0BAQsFAAOCAQEAu5o+EdzflIyxiAuaZOuf3YVH1IdyNPuiJUGgXVKWdQYDOW9W
Vt1uxko98ZLFYY0P2UdEGySyhwALxWFN7k+Jq+z5s8LDirRN3SvSi1JzAugzzP9y
DmdWpC3UVxiFi9KhGrZT9QwyrCoIqf0URLTRyreznnFhHUFwiff2dMfSCtfl+4zs
zeqjmF0AaHmTvl5HQkoIhLrfLSfUnaSymU6MywkBTuOPcImTZvx7P33DaSDpkQBR
9euRLKtC3QVFXxP8c8R7Ayh4SS25Ruhmq9FvqrRdV+jcbrS5lbDT/zRixA+IJdS1
2v1bcJBYSv7doME79wyn3uasgmvQ6gR5+GnkfQ==
-----END CERTIFICATE-----
